target datalayout = "e-m:e-p270:32:32-p271:32:32-p272:64:64-i64:64-i128:128-f80:128-n8:16:32:64-S128"
target triple = "x86_64-pc-linux-gnu"

%struct.dt_pthread_mutex_t = type { %union.pthread_mutex_t }
%union.pthread_mutex_t = type { %struct.__pthread_mutex_s }
%struct.__pthread_mutex_s = type { i32, i32, i32, i32, i32, i16, i16, %struct.__pthread_internal_list }
%struct.__pthread_internal_list = type { ptr, ptr }
%struct.dt_iop_module_t = type { i32, ptr, ptr, ptr, ptr, ptr, ptr, ptr, ptr, ptr, ptr, ptr, ptr, ptr, ptr, ptr, ptr, ptr, ptr, ptr, ptr, ptr, ptr, ptr, ptr, ptr, ptr, ptr, ptr, ptr, ptr, ptr, ptr, ptr, ptr, ptr, ptr, ptr, ptr, ptr, ptr, ptr, ptr, ptr, ptr, ptr, ptr, ptr, ptr, ptr, ptr, ptr, ptr, ptr, ptr, ptr, ptr, [20 x i8], i32, i32, i32, i32, i32, i32, i32, [8 x i8], [4 x float], [4 x float], [4 x float], [4 x float], [4 x float], [4 x float], ptr, %struct.dt_dev_histogram_stats_t, [4 x i32], i32, i32, ptr, i32, i32, ptr, ptr, i32, ptr, %struct.dt_pthread_mutex_t, ptr, ptr, ptr, ptr, %struct.anon, ptr, ptr, ptr, ptr, ptr, ptr, ptr, i32, ptr, ptr, ptr, ptr, ptr, ptr, ptr, i32, ptr, i32, [128 x i8], i32, ptr, ptr, i32, [12 x i8] }
%struct.dt_dev_histogram_stats_t = type { i32, i64, i32, i32 }
%struct.anon = type { %struct.anon.0, %struct.anon.1 }
%struct.anon.0 = type { ptr, ptr }
%struct.anon.1 = type { ptr, i32 }
%struct.dt_iop_gui_blend_data_t = type { i32, i32, i32, i32, i32, i32, i32, ptr, ptr, ptr, ptr, ptr, ptr, ptr, ptr, ptr, ptr, ptr, ptr, ptr, [2 x %struct.dt_iop_gui_blendif_filter_t], ptr, ptr, ptr, ptr, ptr, ptr, ptr, ptr, ptr, ptr, ptr, ptr, i32, i32, ptr, i32, [8 x [2 x i32]], i32, i32, ptr, i32, ptr, ptr, ptr, [5 x ptr], [5 x i32], ptr, ptr, ptr, i32, ptr, ptr, i32, %struct.dt_pthread_mutex_t }
%struct.dt_iop_gui_blendif_filter_t = type { ptr, ptr, [4 x ptr], ptr, ptr, ptr }
%struct.dt_iop_gui_blendif_channel_t = type { ptr, ptr, float, i32, ptr, i32, float, [2 x i32], i32, ptr, ptr, ptr }

; Function Attrs: inlinehint nounwind uwtable
define internal i32 @dt_pthread_mutex_unlock(ptr noundef %0) #3 {
  %2 = alloca ptr, align 8
  store ptr %0, ptr %2, align 8, !tbaa !138
  %3 = load ptr, ptr %2, align 8, !tbaa !138
  %4 = getelementptr inbounds nuw %struct.dt_pthread_mutex_t, ptr %3, i32 0, i32 0
  %5 = call i32 @pthread_mutex_unlock(ptr noundef %4) #11
  ret i32 %5
}

; Function Attrs: inlinehint nounwind uwtable
define internal i32 @dt_pthread_mutex_lock(ptr noundef %0) #3 {
  %2 = alloca ptr, align 8
  store ptr %0, ptr %2, align 8, !tbaa !138
  %3 = load ptr, ptr %2, align 8, !tbaa !138
  %4 = getelementptr inbounds nuw %struct.dt_pthread_mutex_t, ptr %3, i32 0, i32 0
  %5 = call i32 @pthread_mutex_lock(ptr noundef %4) #11
  ret i32 %5
}

; Function Attrs: nounwind uwtable
define internal void @_blendop_blendif_channel_mask_view_toggle(ptr noundef %0, ptr noundef %1, i32 noundef %2) #0 {
  %4 = alloca ptr, align 8
  %5 = alloca ptr, align 8
  %6 = alloca i32, align 4
  %7 = alloca ptr, align 8
  %8 = alloca i32, align 4
  %9 = alloca i32, align 4
  store ptr %0, ptr %4, align 8, !tbaa !11
  store ptr %1, ptr %5, align 8, !tbaa !6
  store i32 %2, ptr %6, align 4, !tbaa !80
  call void @llvm.lifetime.start.p0(i64 8, ptr %7) #11
  %10 = load ptr, ptr %5, align 8, !tbaa !6
  %11 = getelementptr inbounds nuw %struct.dt_iop_module_t, ptr %10, i32 0, i32 88
  %12 = load ptr, ptr %11, align 8, !tbaa !15
  store ptr %12, ptr %7, align 8, !tbaa !31
  call void @llvm.lifetime.start.p0(i64 4, ptr %8) #11
  %13 = load ptr, ptr %5, align 8, !tbaa !6
  %14 = getelementptr inbounds nuw %struct.dt_iop_module_t, ptr %13, i32 0, i32 63
  %15 = load i32, ptr %14, align 16, !tbaa !158
  %16 = and i32 %15, -65537
  store i32 %16, ptr %8, align 4, !tbaa !80
  %17 = load ptr, ptr %5, align 8, !tbaa !6
  %18 = getelementptr inbounds nuw %struct.dt_iop_module_t, ptr %17, i32 0, i32 63
  %19 = load i32, ptr %18, align 16, !tbaa !158
  %20 = load i32, ptr %6, align 4, !tbaa !80
  %21 = and i32 %19, %20
  %22 = icmp ne i32 %21, 0
  br i1 %22, label %23, label %28

23:                                               ; preds = %3
  %24 = load i32, ptr %6, align 4, !tbaa !80
  %25 = xor i32 %24, -1
  %26 = load i32, ptr %8, align 4, !tbaa !80
  %27 = and i32 %26, %25
  store i32 %27, ptr %8, align 4, !tbaa !80
  br label %32

28:                                               ; preds = %3
  %29 = load i32, ptr %6, align 4, !tbaa !80
  %30 = load i32, ptr %8, align 4, !tbaa !80
  %31 = or i32 %30, %29
  store i32 %31, ptr %8, align 4, !tbaa !80
  br label %32

32:                                               ; preds = %28, %23
  %33 = load ptr, ptr %7, align 8, !tbaa !31
  %34 = getelementptr inbounds nuw %struct.dt_iop_gui_blend_data_t, ptr %33, i32 0, i32 54
  %35 = call i32 @dt_pthread_mutex_lock(ptr noundef %34)
  %36 = load i32, ptr %8, align 4, !tbaa !80
  %37 = and i32 %36, 65536
  %38 = icmp ne i32 %37, 0
  br i1 %38, label %39, label %44

39:                                               ; preds = %32
  %40 = load ptr, ptr %7, align 8, !tbaa !31
  %41 = getelementptr inbounds nuw %struct.dt_iop_gui_blend_data_t, ptr %40, i32 0, i32 38
  %42 = load i32, ptr %41, align 4, !tbaa !159
  %43 = or i32 %42, 65536
  store i32 %43, ptr %41, align 4, !tbaa !159
  br label %49

44:                                               ; preds = %32
  %45 = load ptr, ptr %7, align 8, !tbaa !31
  %46 = getelementptr inbounds nuw %struct.dt_iop_gui_blend_data_t, ptr %45, i32 0, i32 38
  %47 = load i32, ptr %46, align 4, !tbaa !159
  %48 = and i32 %47, -65537
  store i32 %48, ptr %46, align 4, !tbaa !159
  br label %49

49:                                               ; preds = %44, %39
  %50 = load ptr, ptr %7, align 8, !tbaa !31
  %51 = getelementptr inbounds nuw %struct.dt_iop_gui_blend_data_t, ptr %50, i32 0, i32 54
  %52 = call i32 @dt_pthread_mutex_unlock(ptr noundef %51)
  %53 = load i32, ptr %8, align 4, !tbaa !80
  %54 = and i32 %53, -1021
  store i32 %54, ptr %8, align 4, !tbaa !80
  %55 = load i32, ptr %8, align 4, !tbaa !80
  %56 = and i32 %55, 2
  %57 = icmp ne i32 %56, 0
  br i1 %57, label %58, label %87

58:                                               ; preds = %49
  call void @llvm.lifetime.start.p0(i64 4, ptr %9) #11
  %59 = load ptr, ptr %7, align 8, !tbaa !31
  %60 = getelementptr inbounds nuw %struct.dt_iop_gui_blend_data_t, ptr %59, i32 0, i32 35
  %61 = load ptr, ptr %60, align 8, !tbaa !85
  %62 = load ptr, ptr %7, align 8, !tbaa !31
  %63 = getelementptr inbounds nuw %struct.dt_iop_gui_blend_data_t, ptr %62, i32 0, i32 36
  %64 = load i32, ptr %63, align 8, !tbaa !79
  %65 = sext i32 %64 to i64
  %66 = getelementptr inbounds %struct.dt_iop_gui_blendif_channel_t, ptr %61, i64 %65
  %67 = getelementptr inbounds nuw %struct.dt_iop_gui_blendif_channel_t, ptr %66, i32 0, i32 8
  %68 = load i32, ptr %67, align 8, !tbaa !307
  store i32 %68, ptr %9, align 4, !tbaa !80
  %69 = load ptr, ptr %4, align 8, !tbaa !11
  %70 = load ptr, ptr %7, align 8, !tbaa !31
  %71 = getelementptr inbounds nuw %struct.dt_iop_gui_blend_data_t, ptr %70, i32 0, i32 20
  %72 = getelementptr inbounds [2 x %struct.dt_iop_gui_blendif_filter_t], ptr %71, i64 0, i64 1
  %73 = getelementptr inbounds nuw %struct.dt_iop_gui_blendif_filter_t, ptr %72, i32 0, i32 0
  %74 = load ptr, ptr %73, align 8, !tbaa !121
  %75 = call i64 @gtk_widget_get_type() #12
  %76 = call ptr @g_type_check_instance_cast(ptr noundef %74, i64 noundef %75)
  %77 = icmp eq ptr %69, %76
  br i1 %77, label %78, label %81

78:                                               ; preds = %58
  %79 = load i32, ptr %9, align 4, !tbaa !80
  %80 = or i32 %79, 4
  store i32 %80, ptr %9, align 4, !tbaa !80
  br label %81

81:                                               ; preds = %78, %58
  %82 = load i32, ptr %8, align 4, !tbaa !80
  %83 = and i32 %82, -1021
  store i32 %83, ptr %8, align 4, !tbaa !80
  %84 = load i32, ptr %9, align 4, !tbaa !80
  %85 = load i32, ptr %8, align 4, !tbaa !80
  %86 = or i32 %85, %84
  store i32 %86, ptr %8, align 4, !tbaa !80
  call void @llvm.lifetime.end.p0(i64 4, ptr %9) #11
  br label %87

87:                                               ; preds = %81, %49
  %88 = load i32, ptr %8, align 4, !tbaa !80
  %89 = load ptr, ptr %5, align 8, !tbaa !6
  %90 = getelementptr inbounds nuw %struct.dt_iop_module_t, ptr %89, i32 0, i32 63
  %91 = load i32, ptr %90, align 16, !tbaa !158
  %92 = icmp ne i32 %88, %91
  br i1 %92, label %93, label %98

93:                                               ; preds = %87
  %94 = load i32, ptr %8, align 4, !tbaa !80
  %95 = load ptr, ptr %5, align 8, !tbaa !6
  %96 = getelementptr inbounds nuw %struct.dt_iop_module_t, ptr %95, i32 0, i32 63
  store i32 %94, ptr %96, align 16, !tbaa !158
  %97 = load ptr, ptr %5, align 8, !tbaa !6
  call void @dt_iop_refresh_center(ptr noundef %97)
  br label %98

98:                                               ; preds = %93, %87
  call void @llvm.lifetime.end.p0(i64 4, ptr %8) #11
  call void @llvm.lifetime.end.p0(i64 8, ptr %7) #11
  ret void
}