; Function Attrs: nounwind uwtable
define internal fastcc void @_blendop_blendif_channel_mask_view_toggle(ptr noundef readnone %0, ptr noundef %1, i32 noundef range(i32 1, 65539) %2) unnamed_addr #0 {
  %4 = getelementptr inbounds nuw i8, ptr %1, i64 776
  %5 = load ptr, ptr %4, align 8, !tbaa !6
  %6 = getelementptr inbounds nuw i8, ptr %1, i64 496
  %7 = load i32, ptr %6, align 16, !tbaa !144
  %8 = and i32 %7, -65537
  %9 = and i32 %7, %2
  %.not = icmp eq i32 %9, 0
  %10 = xor i32 %2, -1
  %11 = and i32 %8, %10
  %12 = or i32 %8, %2
  %.027 = select i1 %.not, i32 %12, i32 %11
  %13 = getelementptr inbounds nuw i8, ptr %5, i64 632
  %14 = tail call i32 @pthread_mutex_lock(ptr noundef nonnull %13) #18
  %15 = and i32 %.027, 65536
  %16 = getelementptr inbounds nuw i8, ptr %5, i64 460
  %17 = load i32, ptr %16, align 4, !tbaa !145
  %18 = and i32 %17, -65537
  %.sink = or disjoint i32 %18, %15
  store i32 %.sink, ptr %16, align 4, !tbaa !145
  %19 = tail call i32 @pthread_mutex_unlock(ptr noundef nonnull %13) #18
  %20 = and i32 %.027, -1021
  %21 = and i32 %.027, 2
  %.not29 = icmp eq i32 %21, 0
  br i1 %.not29, label %37, label %22

22:                                               ; preds = %3
  %23 = getelementptr inbounds nuw i8, ptr %5, i64 384
  %24 = load ptr, ptr %23, align 8, !tbaa !76
  %25 = getelementptr inbounds nuw i8, ptr %5, i64 392
  %26 = load i32, ptr %25, align 8, !tbaa !72
  %27 = sext i32 %26 to i64
  %28 = getelementptr inbounds %struct.dt_iop_gui_blendif_channel_t, ptr %24, i64 %27, i32 8
  %29 = load i32, ptr %28, align 8, !tbaa !159
  %30 = getelementptr inbounds nuw i8, ptr %5, i64 208
  %31 = load ptr, ptr %30, align 8, !tbaa !108
  %32 = tail call i64 @gtk_widget_get_type() #19
  %33 = tail call ptr @g_type_check_instance_cast(ptr noundef %31, i64 noundef %32) #18
  %34 = icmp eq ptr %0, %33
  %35 = or i32 %29, 4
  %spec.select = select i1 %34, i32 %35, i32 %29
  %36 = or i32 %spec.select, %20
  br label %37

37:                                               ; preds = %22, %3
  %.1 = phi i32 [ %36, %22 ], [ %20, %3 ]
  %38 = load i32, ptr %6, align 16, !tbaa !144
  %.not30 = icmp eq i32 %.1, %38
  br i1 %.not30, label %40, label %39

39:                                               ; preds = %37
  store i32 %.1, ptr %6, align 16, !tbaa !144
  tail call void @dt_iop_refresh_center(ptr noundef nonnull %1) #18
  br label %40

40:                                               ; preds = %39, %37
  ret void
}